target datalayout = "e-m:e-p270:32:32-p271:32:32-p272:64:64-i64:64-i128:128-f80:128-n8:16:32:64-S128"
target triple = "x86_64-pc-linux-gnu"

@.str.16 = private unnamed_addr constant [2 x i8] c",\00", align 1

; Function Attrs: nounwind uwtable
define double @dt_util_gps_string_to_number(ptr noundef %0) #0 {
  %2 = alloca ptr, align 8
  %3 = alloca double, align 8
  %4 = alloca i8, align 1
  %5 = alloca i32, align 4
  %6 = alloca i32, align 4
  %7 = alloca ptr, align 8
  store ptr %0, ptr %2, align 8, !tbaa !6
  call void @llvm.lifetime.start.p0(i64 8, ptr %3) #18
  store double 0x7FF8000000000000, ptr %3, align 8, !tbaa !19
  call void @llvm.lifetime.start.p0(i64 1, ptr %4) #18
  call void @llvm.lifetime.start.p0(i64 4, ptr %5) #18
  %8 = call ptr @__ctype_toupper_loc() #22
  %9 = load ptr, ptr %8, align 8, !tbaa !43
  %10 = load ptr, ptr %2, align 8, !tbaa !6
  %11 = load ptr, ptr %2, align 8, !tbaa !6
  %12 = call i64 @strlen(ptr noundef %11) #17
  %13 = sub i64 %12, 1
  %14 = getelementptr inbounds nuw i8, ptr %10, i64 %13
  %15 = load i8, ptr %14, align 1, !tbaa !18
  %16 = sext i8 %15 to i32
  %17 = sext i32 %16 to i64
  %18 = getelementptr inbounds i32, ptr %9, i64 %17
  %19 = load i32, ptr %18, align 4, !tbaa !15
  store i32 %19, ptr %5, align 4, !tbaa !15
  %20 = load i32, ptr %5, align 4, !tbaa !15
  store i32 %20, ptr %6, align 4, !tbaa !15
  call void @llvm.lifetime.end.p0(i64 4, ptr %5) #18
  %21 = load i32, ptr %6, align 4, !tbaa !15
  %22 = trunc i32 %21 to i8
  store i8 %22, ptr %4, align 1, !tbaa !18
  call void @llvm.lifetime.start.p0(i64 8, ptr %7) #18
  %23 = load ptr, ptr %2, align 8, !tbaa !6
  %24 = call ptr @g_strsplit(ptr noundef %23, ptr noundef @.str.16, i32 noundef 0)
  store ptr %24, ptr %7, align 8, !tbaa !11
  %25 = load ptr, ptr %7, align 8, !tbaa !11
  %26 = icmp ne ptr %25, null
  br i1 %26, label %27, label %93

27:                                               ; preds = %1
  %28 = load ptr, ptr %7, align 8, !tbaa !11
  %29 = getelementptr inbounds ptr, ptr %28, i64 1
  %30 = load ptr, ptr %29, align 8, !tbaa !6
  %31 = icmp eq ptr %30, null
  br i1 %31, label %32, label %37

32:                                               ; preds = %27
  %33 = load ptr, ptr %7, align 8, !tbaa !11
  %34 = getelementptr inbounds ptr, ptr %33, i64 0
  %35 = load ptr, ptr %34, align 8, !tbaa !6
  %36 = call reassoc nsz arcp contract afn double @g_ascii_strtod(ptr noundef %35, ptr noundef null)
  store double %36, ptr %3, align 8, !tbaa !19
  br label %81

37:                                               ; preds = %27
  %38 = load ptr, ptr %7, align 8, !tbaa !11
  %39 = getelementptr inbounds ptr, ptr %38, i64 2
  %40 = load ptr, ptr %39, align 8, !tbaa !6
  %41 = icmp eq ptr %40, null
  br i1 %41, label %42, label %54

42:                                               ; preds = %37
  %43 = load ptr, ptr %7, align 8, !tbaa !11
  %44 = getelementptr inbounds ptr, ptr %43, i64 0
  %45 = load ptr, ptr %44, align 8, !tbaa !6
  %46 = call i64 @g_ascii_strtoll(ptr noundef %45, ptr noundef null, i32 noundef 10)
  %47 = sitofp i64 %46 to double
  %48 = load ptr, ptr %7, align 8, !tbaa !11
  %49 = getelementptr inbounds ptr, ptr %48, i64 1
  %50 = load ptr, ptr %49, align 8, !tbaa !6
  %51 = call reassoc nsz arcp contract afn double @g_ascii_strtod(ptr noundef %50, ptr noundef null)
  %52 = fdiv reassoc nsz arcp contract afn double %51, 6.000000e+01
  %53 = fadd reassoc nsz arcp contract afn double %47, %52
  store double %53, ptr %3, align 8, !tbaa !19
  br label %80

54:                                               ; preds = %37
  %55 = load ptr, ptr %7, align 8, !tbaa !11
  %56 = getelementptr inbounds ptr, ptr %55, i64 3
  %57 = load ptr, ptr %56, align 8, !tbaa !6
  %58 = icmp eq ptr %57, null
  br i1 %58, label %59, label %79

59:                                               ; preds = %54
  %60 = load ptr, ptr %7, align 8, !tbaa !11
  %61 = getelementptr inbounds ptr, ptr %60, i64 0
  %62 = load ptr, ptr %61, align 8, !tbaa !6
  %63 = call i64 @g_ascii_strtoll(ptr noundef %62, ptr noundef null, i32 noundef 10)
  %64 = sitofp i64 %63 to double
  %65 = load ptr, ptr %7, align 8, !tbaa !11
  %66 = getelementptr inbounds ptr, ptr %65, i64 1
  %67 = load ptr, ptr %66, align 8, !tbaa !6
  %68 = call i64 @g_ascii_strtoll(ptr noundef %67, ptr noundef null, i32 noundef 10)
  %69 = sitofp i64 %68 to double
  %70 = fdiv reassoc nsz arcp contract afn double %69, 6.000000e+01
  %71 = fadd reassoc nsz arcp contract afn double %64, %70
  %72 = load ptr, ptr %7, align 8, !tbaa !11
  %73 = getelementptr inbounds ptr, ptr %72, i64 2
  %74 = load ptr, ptr %73, align 8, !tbaa !6
  %75 = call i64 @g_ascii_strtoll(ptr noundef %74, ptr noundef null, i32 noundef 10)
  %76 = sitofp i64 %75 to double
  %77 = fdiv reassoc nsz arcp contract afn double %76, 3.600000e+03
  %78 = fadd reassoc nsz arcp contract afn double %71, %77
  store double %78, ptr %3, align 8, !tbaa !19
  br label %79

79:                                               ; preds = %59, %54
  br label %80

80:                                               ; preds = %79, %42
  br label %81

81:                                               ; preds = %80, %32
  %82 = load i8, ptr %4, align 1, !tbaa !18
  %83 = sext i8 %82 to i32
  %84 = icmp eq i32 %83, 83
  br i1 %84, label %89, label %85

85:                                               ; preds = %81
  %86 = load i8, ptr %4, align 1, !tbaa !18
  %87 = sext i8 %86 to i32
  %88 = icmp eq i32 %87, 87
  br i1 %88, label %89, label %92

89:                                               ; preds = %85, %81
  %90 = load double, ptr %3, align 8, !tbaa !19
  %91 = fmul reassoc nsz arcp contract afn double %90, -1.000000e+00
  store double %91, ptr %3, align 8, !tbaa !19
  br label %92

92:                                               ; preds = %89, %85
  br label %93

93:                                               ; preds = %92, %1
  %94 = load ptr, ptr %7, align 8, !tbaa !11
  call void @g_strfreev(ptr noundef %94)
  %95 = load double, ptr %3, align 8, !tbaa !19
  call void @llvm.lifetime.end.p0(i64 8, ptr %7) #18
  call void @llvm.lifetime.end.p0(i64 1, ptr %4) #18
  call void @llvm.lifetime.end.p0(i64 8, ptr %3) #18
  ret double %95
}