; Function Attrs: nounwind uwtable
define double @dt_util_gps_string_to_number(ptr noundef %0) local_unnamed_addr #0 {
  %2 = tail call ptr @__ctype_toupper_loc() #30
  %3 = load ptr, ptr %2, align 8, !tbaa !86
  %4 = tail call i64 @strlen(ptr noundef nonnull dereferenceable(1) %0) #26
  %5 = getelementptr i8, ptr %0, i64 %4
  %6 = getelementptr i8, ptr %5, i64 -1
  %7 = load i8, ptr %6, align 1, !tbaa !11
  %8 = sext i8 %7 to i64
  %9 = getelementptr inbounds i32, ptr %3, i64 %8
  %10 = load i32, ptr %9, align 4, !tbaa !25
  %11 = tail call ptr @g_strsplit(ptr noundef nonnull %0, ptr noundef nonnull @__const.dt_str_commasubstring.delimiter, i32 noundef 0) #27
  %.not = icmp eq ptr %11, null
  br i1 %.not, label %52, label %12

12:                                               ; preds = %1
  %13 = getelementptr inbounds nuw i8, ptr %11, i64 8
  %14 = load ptr, ptr %13, align 8, !tbaa !6
  %15 = icmp eq ptr %14, null
  br i1 %15, label %16, label %19

16:                                               ; preds = %12
  %17 = load ptr, ptr %11, align 8, !tbaa !6
  %18 = tail call reassoc nsz arcp contract afn double @g_ascii_strtod(ptr noundef %17, ptr noundef null) #27
  br label %49

19:                                               ; preds = %12
  %20 = getelementptr inbounds nuw i8, ptr %11, i64 16
  %21 = load ptr, ptr %20, align 8, !tbaa !6
  %22 = icmp eq ptr %21, null
  br i1 %22, label %23, label %31

23:                                               ; preds = %19
  %24 = load ptr, ptr %11, align 8, !tbaa !6
  %25 = tail call i64 @g_ascii_strtoll(ptr noundef %24, ptr noundef null, i32 noundef 10) #27
  %26 = sitofp i64 %25 to double
  %27 = load ptr, ptr %13, align 8, !tbaa !6
  %28 = tail call reassoc nsz arcp contract afn double @g_ascii_strtod(ptr noundef %27, ptr noundef null) #27
  %29 = fmul reassoc nsz arcp contract afn double %28, 0x3F91111111111111
  %30 = fadd reassoc nsz arcp contract afn double %29, %26
  br label %49

31:                                               ; preds = %19
  %32 = getelementptr inbounds nuw i8, ptr %11, i64 24
  %33 = load ptr, ptr %32, align 8, !tbaa !6
  %34 = icmp eq ptr %33, null
  br i1 %34, label %35, label %49

35:                                               ; preds = %31
  %36 = load ptr, ptr %11, align 8, !tbaa !6
  %37 = tail call i64 @g_ascii_strtoll(ptr noundef %36, ptr noundef null, i32 noundef 10) #27
  %38 = sitofp i64 %37 to double
  %39 = load ptr, ptr %13, align 8, !tbaa !6
  %40 = tail call i64 @g_ascii_strtoll(ptr noundef %39, ptr noundef null, i32 noundef 10) #27
  %41 = sitofp i64 %40 to double
  %42 = fmul reassoc nsz arcp contract afn double %41, 0x3F91111111111111
  %43 = fadd reassoc nsz arcp contract afn double %42, %38
  %44 = load ptr, ptr %20, align 8, !tbaa !6
  %45 = tail call i64 @g_ascii_strtoll(ptr noundef %44, ptr noundef null, i32 noundef 10) #27
  %46 = sitofp i64 %45 to double
  %47 = fmul reassoc nsz arcp contract afn double %46, 0x3F323456789ABCDF
  %48 = fadd reassoc nsz arcp contract afn double %43, %47
  br label %49

49:                                               ; preds = %23, %35, %31, %16
  %.1 = phi nsz double [ %18, %16 ], [ %30, %23 ], [ %48, %35 ], [ 0x7FF8000000000000, %31 ]
  %50 = and i32 %10, 251
  %or.cond = icmp eq i32 %50, 83
  %51 = fneg reassoc nsz arcp contract afn double %.1
  %spec.select = select i1 %or.cond, double %51, double %.1
  br label %52

52:                                               ; preds = %49, %1
  %.0 = phi nsz double [ 0x7FF8000000000000, %1 ], [ %spec.select, %49 ]
  tail call void @g_strfreev(ptr noundef %11) #27
  ret double %.0
}